#include <math.h>
#include <stdio.h>
#include <stdlib.h>
#include <string.h>
#include <iostream>
using namespace std;



int main()
{
	int i,j,k;
	int max=0;
	int maxall=1;
	int num[10000];
	int hight[10000];
	cin>>k;
	for(i=0;i<k;i++)
	{
		cin>>hight[i];
		num[i]=0;
	}
	num[0]=1;
	for(i=1;i<k;i++)
	{
	  max=1;
      for(j=0;j<i;j++)
	  {
		  if( hight[j]>=hight[i] && max<num[j]+1 )
			  max= num[j]+1;
	  }
	  num[i]= max;
	  if( num[i]>maxall ) maxall = num[i];
	}
	cout<<maxall<<endl;
	return 0;
}